c__builtin__
set
p0
((lp1
S'37980'
p2
aS'38206'
p3
aS'38130'
p4
aS'38213'
p5
aS'38212'
p6
aS'38211'
p7
aS'38217'
p8
aS'38209'
p9
aS'38220'
p10
aS'38191'
p11
aS'37849'
p12
aS'38208'
p13
aS'38192'
p14
aS'38193'
p15
aS'38194'
p16
aS'38219'
p17
aS'38216'
p18
atp19
Rp20
.