(dp0
S'38219'
p1
S'5-13 2009 Bacchus OSL C\xe7\xbb\x84:Tester vs BackHo (1)'
p2
sS'38220'
p3
S'5-13 2009 Bacchus OSL C\xe7\xbb\x84:Tester vs BackHo (2)'
p4
sS'38229'
p5
S'5-14 MSL Survivor Tournament 7\xe7\xbb\x84\xe8\xb4\xa5\xe8\x80\x85\xe6\x88\x98:CuteAngeL vs Peace'
p6
sS'38230'
p7
S'5-14 MSL Survivor Tournament 7\xe7\xbb\x84\xe6\x9c\x80\xe7\xbb\x88\xe6\x88\x98:CuteAngeL vs Kal'
p8
sS'38130'
p9
S'5-10 SPL CJ vs KTF (5):Effort vs Flash'
p10
sS'38213'
p11
S'5-13 SPL STX vs KTF (3):Calm vs Tempest'
p12
sS'38212'
p13
S'5-13 SPL STX vs KTF (2):Notice vs Flash'
p14
sS'38211'
p15
S'5-13 SPL STX vs KTF (1):Kal vs HoeJJa'
p16
sS'38208'
p17
S'5-13 SPL SKT vs CJ (3):Hyuk vs Kwanro'
p18
sS'38209'
p19
S'5-13 SPL SKT vs CJ (4):Fantasy vs Movie'
p20
sS'37980'
p21
S'5-4 SPL KTF vs Hwaseung (3):HoeJJa vs BackHo'
p22
sS'38214'
p23
S'5-13 SPL STX vs KTF (4):Modesty vs Luxury'
p24
sS'38217'
p25
S'5-13 2009 Bacchus OSL C\xe7\xbb\x84:BackHo vs GoRush (2)'
p26
sS'38206'
p27
S'5-13 SPL SKT vs CJ (1):Bisu vs Effort'
p28
sS'38207'
p29
S'5-13 SPL SKT vs CJ (2):Best vs SkyHigh'
p30
sS'37849'
p31
S'4-28 GomTV Classic Season 3 64\xe5\xbc\xba:Sacsri vs Much (3)'
p32
sS'38216'
p33
S'5-13 2009 Bacchus OSL C\xe7\xbb\x84:BackHo vs GoRush (1)'
p34
s.